; Function Attrs: mustprogress uwtable
define hidden noundef zeroext i1 @_ZNK3nla9intervals20mul_has_inf_intervalERKNS_7nex_mulE(ptr noundef nonnull align 8 dereferenceable(1432) %this, ptr nocapture noundef nonnull readonly align 8 dereferenceable(48) %e) local_unnamed_addr #3 align 2 {
entry:
  %m_children.i = getelementptr inbounds i8, ptr %e, i64 40
  %0 = load ptr, ptr %m_children.i, align 8
  %cmp.i.i.i = icmp eq ptr %0, null
  br i1 %cmp.i.i.i, label %return, label %_ZNK3nla7nex_mul3endEv.exit

_ZNK3nla7nex_mul3endEv.exit:                      ; preds = %entry
  %arrayidx.i.i.i = getelementptr inbounds i8, ptr %0, i64 -4
  %1 = load i32, ptr %arrayidx.i.i.i, align 4
  %2 = zext i32 %1 to i64
  %add.ptr.i.i = getelementptr inbounds %"class.nla::nex_pow", ptr %0, i64 %2
  %cmp.not9 = icmp eq i32 %1, 0
  br i1 %cmp.not9, label %return, label %for.body.lr.ph

for.body.lr.ph:                                   ; preds = %_ZNK3nla7nex_mul3endEv.exit
  %m_core.i = getelementptr inbounds i8, ptr %this, i64 1424
  br label %for.body

for.body:                                         ; preds = %for.body.lr.ph, %if.end7
  %has_inf.011 = phi i1 [ false, %for.body.lr.ph ], [ %or7, %if.end7 ]
  %__begin1.010 = phi ptr [ %0, %for.body.lr.ph ], [ %incdec.ptr, %if.end7 ]
  %3 = load ptr, ptr %__begin1.010, align 8
  %vtable.i = load ptr, ptr %3, align 8
  %vfn.i = getelementptr inbounds i8, ptr %vtable.i, i64 8
  %4 = load ptr, ptr %vfn.i, align 8
  %call.i = tail call noundef i32 %4(ptr noundef nonnull align 8 dereferenceable(8) %3)
  %5 = and i32 %call.i, -2
  %switch.i.not = icmp eq i32 %5, 2
  br i1 %switch.i.not, label %return, label %if.end

if.end:                                           ; preds = %for.body
  %vtable.i.i = load ptr, ptr %3, align 8
  %vfn.i.i = getelementptr inbounds i8, ptr %vtable.i.i, i64 8
  %6 = load ptr, ptr %vfn.i.i, align 8
  %call.i.i = tail call noundef i32 %6(ptr noundef nonnull align 8 dereferenceable(8) %3)
  %cmp.i.i = icmp eq i32 %call.i.i, 1
  br i1 %cmp.i.i, label %_ZNK3nla9intervals17has_zero_intervalERKNS_3nexE.exit, label %if.end7

_ZNK3nla9intervals17has_zero_intervalERKNS_3nexE.exit: ; preds = %if.end
  %7 = load ptr, ptr %m_core.i, align 8
  %m_j.i.i = getelementptr inbounds i8, ptr %3, i64 8
  %8 = load i32, ptr %m_j.i.i, align 8
  %call4.i = tail call noundef zeroext i1 @_ZNK3nla4core20var_is_fixed_to_zeroEj(ptr noundef nonnull align 8 dereferenceable(4720) %7, i32 noundef %8)
  br i1 %call4.i, label %return, label %if.end7

if.end7:                                          ; preds = %if.end, %_ZNK3nla9intervals17has_zero_intervalERKNS_3nexE.exit
  %call8 = tail call noundef zeroext i1 @_ZNK3nla9intervals16has_inf_intervalERKNS_3nexE(ptr noundef nonnull align 8 dereferenceable(1432) %this, ptr noundef nonnull align 8 dereferenceable(8) %3)
  %or7 = or i1 %has_inf.011, %call8
  %incdec.ptr = getelementptr inbounds i8, ptr %__begin1.010, i64 16
  %cmp.not = icmp eq ptr %incdec.ptr, %add.ptr.i.i
  br i1 %cmp.not, label %return, label %for.body

return:                                           ; preds = %for.body, %_ZNK3nla9intervals17has_zero_intervalERKNS_3nexE.exit, %if.end7, %entry, %_ZNK3nla7nex_mul3endEv.exit
  %retval.0 = phi i1 [ false, %_ZNK3nla7nex_mul3endEv.exit ], [ false, %entry ], [ %or7, %if.end7 ], [ false, %_ZNK3nla9intervals17has_zero_intervalERKNS_3nexE.exit ], [ false, %for.body ]
  ret i1 %retval.0
}